; Function Attrs: nounwind uwtable
define ptr @l_Array_forIn_x27Unsafe_loop___at___private_Lean_Meta_Tactic_Grind_Inv_0__Lean_Meta_Grind_checkParents___spec__1___boxed(ptr noundef %0, ptr noundef %1, ptr noundef %2, ptr noundef %3, ptr noundef %4, ptr noundef %5, ptr noundef %6, ptr noundef %7, ptr noundef %8, ptr noundef %9, ptr noundef %10, ptr noundef %11, ptr noundef %12, ptr noundef %13, ptr noundef %14, ptr noundef %15) local_unnamed_addr #0 {
  %17 = getelementptr i8, ptr %4, i64 8
  %.val76 = load i64, ptr %17, align 8, !tbaa !12
  %18 = ptrtoint ptr %4 to i64
  %19 = and i64 %18, 1
  %.not = icmp eq i64 %19, 0
  br i1 %.not, label %20, label %lean_dec.exit47

20:                                               ; preds = %16
  %21 = load i32, ptr %4, align 4, !tbaa !8
  %22 = icmp sgt i32 %21, 1
  br i1 %22, label %23, label %25, !prof !11

23:                                               ; preds = %20
  %24 = add nsw i32 %21, -1
  store i32 %24, ptr %4, align 4, !tbaa !8
  br label %lean_dec.exit47

25:                                               ; preds = %20
  %.not.i = icmp eq i32 %21, 0
  br i1 %.not.i, label %lean_dec.exit47, label %26

26:                                               ; preds = %25
  tail call void @lean_dec_ref_cold(ptr noundef nonnull %4) #4
  br label %lean_dec.exit47

lean_dec.exit47:                                  ; preds = %26, %25, %23, %16
  %27 = getelementptr i8, ptr %5, i64 8
  %.val = load i64, ptr %27, align 8, !tbaa !12
  %28 = ptrtoint ptr %5 to i64
  %29 = and i64 %28, 1
  %.not77 = icmp eq i64 %29, 0
  br i1 %.not77, label %30, label %lean_dec.exit46

30:                                               ; preds = %lean_dec.exit47
  %31 = load i32, ptr %5, align 4, !tbaa !8
  %32 = icmp sgt i32 %31, 1
  br i1 %32, label %33, label %35, !prof !11

33:                                               ; preds = %30
  %34 = add nsw i32 %31, -1
  store i32 %34, ptr %5, align 4, !tbaa !8
  br label %lean_dec.exit46

35:                                               ; preds = %30
  %.not.i48 = icmp eq i32 %31, 0
  br i1 %.not.i48, label %lean_dec.exit46, label %36

36:                                               ; preds = %35
  tail call void @lean_dec_ref_cold(ptr noundef nonnull %5) #4
  br label %lean_dec.exit46

lean_dec.exit46:                                  ; preds = %36, %35, %33, %lean_dec.exit47
  %37 = ptrtoint ptr %6 to i64
  %38 = lshr i64 %37, 1
  %39 = trunc i64 %38 to i8
  %40 = and i64 %37, 1
  %.not78 = icmp eq i64 %40, 0
  br i1 %.not78, label %41, label %lean_dec.exit45

41:                                               ; preds = %lean_dec.exit46
  %42 = load i32, ptr %6, align 4, !tbaa !8
  %43 = icmp sgt i32 %42, 1
  br i1 %43, label %44, label %46, !prof !11

44:                                               ; preds = %41
  %45 = add nsw i32 %42, -1
  store i32 %45, ptr %6, align 4, !tbaa !8
  br label %lean_dec.exit45

46:                                               ; preds = %41
  %.not.i50 = icmp eq i32 %42, 0
  br i1 %.not.i50, label %lean_dec.exit45, label %47

47:                                               ; preds = %46
  tail call void @lean_dec_ref_cold(ptr noundef nonnull %6) #4
  br label %lean_dec.exit45

lean_dec.exit45:                                  ; preds = %47, %46, %44, %lean_dec.exit46
  %48 = tail call ptr @l_Array_forIn_x27Unsafe_loop___at___private_Lean_Meta_Tactic_Grind_Inv_0__Lean_Meta_Grind_checkParents___spec__1(ptr noundef %0, ptr poison, ptr poison, ptr noundef %3, i64 noundef %.val76, i64 noundef %.val, i8 noundef zeroext %39, ptr noundef %7, ptr poison, ptr poison, ptr poison, ptr poison, ptr poison, ptr poison, ptr poison, ptr noundef %15)
  %49 = ptrtoint ptr %14 to i64
  %50 = and i64 %49, 1
  %.not79 = icmp eq i64 %50, 0
  br i1 %.not79, label %51, label %lean_dec.exit44

51:                                               ; preds = %lean_dec.exit45
  %52 = load i32, ptr %14, align 4, !tbaa !8
  %53 = icmp sgt i32 %52, 1
  br i1 %53, label %54, label %56, !prof !11

54:                                               ; preds = %51
  %55 = add nsw i32 %52, -1
  store i32 %55, ptr %14, align 4, !tbaa !8
  br label %lean_dec.exit44

56:                                               ; preds = %51
  %.not.i52 = icmp eq i32 %52, 0
  br i1 %.not.i52, label %lean_dec.exit44, label %57

57:                                               ; preds = %56
  tail call void @lean_dec_ref_cold(ptr noundef nonnull %14) #4
  br label %lean_dec.exit44

lean_dec.exit44:                                  ; preds = %57, %56, %54, %lean_dec.exit45
  %58 = ptrtoint ptr %13 to i64
  %59 = and i64 %58, 1
  %.not80 = icmp eq i64 %59, 0
  br i1 %.not80, label %60, label %lean_dec.exit43

60:                                               ; preds = %lean_dec.exit44
  %61 = load i32, ptr %13, align 4, !tbaa !8
  %62 = icmp sgt i32 %61, 1
  br i1 %62, label %63, label %65, !prof !11

63:                                               ; preds = %60
  %64 = add nsw i32 %61, -1
  store i32 %64, ptr %13, align 4, !tbaa !8
  br label %lean_dec.exit43

65:                                               ; preds = %60
  %.not.i54 = icmp eq i32 %61, 0
  br i1 %.not.i54, label %lean_dec.exit43, label %66

66:                                               ; preds = %65
  tail call void @lean_dec_ref_cold(ptr noundef nonnull %13) #4
  br label %lean_dec.exit43

lean_dec.exit43:                                  ; preds = %66, %65, %63, %lean_dec.exit44
  %67 = ptrtoint ptr %12 to i64
  %68 = and i64 %67, 1
  %.not81 = icmp eq i64 %68, 0
  br i1 %.not81, label %69, label %lean_dec.exit42

69:                                               ; preds = %lean_dec.exit43
  %70 = load i32, ptr %12, align 4, !tbaa !8
  %71 = icmp sgt i32 %70, 1
  br i1 %71, label %72, label %74, !prof !11

72:                                               ; preds = %69
  %73 = add nsw i32 %70, -1
  store i32 %73, ptr %12, align 4, !tbaa !8
  br label %lean_dec.exit42

74:                                               ; preds = %69
  %.not.i56 = icmp eq i32 %70, 0
  br i1 %.not.i56, label %lean_dec.exit42, label %75

75:                                               ; preds = %74
  tail call void @lean_dec_ref_cold(ptr noundef nonnull %12) #4
  br label %lean_dec.exit42

lean_dec.exit42:                                  ; preds = %75, %74, %72, %lean_dec.exit43
  %76 = ptrtoint ptr %11 to i64
  %77 = and i64 %76, 1
  %.not82 = icmp eq i64 %77, 0
  br i1 %.not82, label %78, label %lean_dec.exit41

78:                                               ; preds = %lean_dec.exit42
  %79 = load i32, ptr %11, align 4, !tbaa !8
  %80 = icmp sgt i32 %79, 1
  br i1 %80, label %81, label %83, !prof !11

81:                                               ; preds = %78
  %82 = add nsw i32 %79, -1
  store i32 %82, ptr %11, align 4, !tbaa !8
  br label %lean_dec.exit41

83:                                               ; preds = %78
  %.not.i58 = icmp eq i32 %79, 0
  br i1 %.not.i58, label %lean_dec.exit41, label %84

84:                                               ; preds = %83
  tail call void @lean_dec_ref_cold(ptr noundef nonnull %11) #4
  br label %lean_dec.exit41

lean_dec.exit41:                                  ; preds = %84, %83, %81, %lean_dec.exit42
  %85 = ptrtoint ptr %10 to i64
  %86 = and i64 %85, 1
  %.not83 = icmp eq i64 %86, 0
  br i1 %.not83, label %87, label %lean_dec.exit40

87:                                               ; preds = %lean_dec.exit41
  %88 = load i32, ptr %10, align 4, !tbaa !8
  %89 = icmp sgt i32 %88, 1
  br i1 %89, label %90, label %92, !prof !11

90:                                               ; preds = %87
  %91 = add nsw i32 %88, -1
  store i32 %91, ptr %10, align 4, !tbaa !8
  br label %lean_dec.exit40

92:                                               ; preds = %87
  %.not.i60 = icmp eq i32 %88, 0
  br i1 %.not.i60, label %lean_dec.exit40, label %93

93:                                               ; preds = %92
  tail call void @lean_dec_ref_cold(ptr noundef nonnull %10) #4
  br label %lean_dec.exit40

lean_dec.exit40:                                  ; preds = %93, %92, %90, %lean_dec.exit41
  %94 = ptrtoint ptr %9 to i64
  %95 = and i64 %94, 1
  %.not84 = icmp eq i64 %95, 0
  br i1 %.not84, label %96, label %lean_dec.exit39

96:                                               ; preds = %lean_dec.exit40
  %97 = load i32, ptr %9, align 4, !tbaa !8
  %98 = icmp sgt i32 %97, 1
  br i1 %98, label %99, label %101, !prof !11

99:                                               ; preds = %96
  %100 = add nsw i32 %97, -1
  store i32 %100, ptr %9, align 4, !tbaa !8
  br label %lean_dec.exit39

101:                                              ; preds = %96
  %.not.i62 = icmp eq i32 %97, 0
  br i1 %.not.i62, label %lean_dec.exit39, label %102

102:                                              ; preds = %101
  tail call void @lean_dec_ref_cold(ptr noundef nonnull %9) #4
  br label %lean_dec.exit39

lean_dec.exit39:                                  ; preds = %102, %101, %99, %lean_dec.exit40
  %103 = ptrtoint ptr %8 to i64
  %104 = and i64 %103, 1
  %.not85 = icmp eq i64 %104, 0
  br i1 %.not85, label %105, label %lean_dec.exit38

105:                                              ; preds = %lean_dec.exit39
  %106 = load i32, ptr %8, align 4, !tbaa !8
  %107 = icmp sgt i32 %106, 1
  br i1 %107, label %108, label %110, !prof !11

108:                                              ; preds = %105
  %109 = add nsw i32 %106, -1
  store i32 %109, ptr %8, align 4, !tbaa !8
  br label %lean_dec.exit38

110:                                              ; preds = %105
  %.not.i64 = icmp eq i32 %106, 0
  br i1 %.not.i64, label %lean_dec.exit38, label %111

111:                                              ; preds = %110
  tail call void @lean_dec_ref_cold(ptr noundef nonnull %8) #4
  br label %lean_dec.exit38

lean_dec.exit38:                                  ; preds = %111, %110, %108, %lean_dec.exit39
  %112 = ptrtoint ptr %7 to i64
  %113 = and i64 %112, 1
  %.not86 = icmp eq i64 %113, 0
  br i1 %.not86, label %114, label %lean_dec.exit37

114:                                              ; preds = %lean_dec.exit38
  %115 = load i32, ptr %7, align 4, !tbaa !8
  %116 = icmp sgt i32 %115, 1
  br i1 %116, label %117, label %119, !prof !11

117:                                              ; preds = %114
  %118 = add nsw i32 %115, -1
  store i32 %118, ptr %7, align 4, !tbaa !8
  br label %lean_dec.exit37

119:                                              ; preds = %114
  %.not.i66 = icmp eq i32 %115, 0
  br i1 %.not.i66, label %lean_dec.exit37, label %120

120:                                              ; preds = %119
  tail call void @lean_dec_ref_cold(ptr noundef nonnull %7) #4
  br label %lean_dec.exit37

lean_dec.exit37:                                  ; preds = %120, %119, %117, %lean_dec.exit38
  %121 = ptrtoint ptr %3 to i64
  %122 = and i64 %121, 1
  %.not87 = icmp eq i64 %122, 0
  br i1 %.not87, label %123, label %lean_dec.exit36

123:                                              ; preds = %lean_dec.exit37
  %124 = load i32, ptr %3, align 4, !tbaa !8
  %125 = icmp sgt i32 %124, 1
  br i1 %125, label %126, label %128, !prof !11

126:                                              ; preds = %123
  %127 = add nsw i32 %124, -1
  store i32 %127, ptr %3, align 4, !tbaa !8
  br label %lean_dec.exit36

128:                                              ; preds = %123
  %.not.i68 = icmp eq i32 %124, 0
  br i1 %.not.i68, label %lean_dec.exit36, label %129

129:                                              ; preds = %128
  tail call void @lean_dec_ref_cold(ptr noundef nonnull %3) #4
  br label %lean_dec.exit36

lean_dec.exit36:                                  ; preds = %129, %128, %126, %lean_dec.exit37
  %130 = ptrtoint ptr %2 to i64
  %131 = and i64 %130, 1
  %.not88 = icmp eq i64 %131, 0
  br i1 %.not88, label %132, label %lean_dec.exit35

132:                                              ; preds = %lean_dec.exit36
  %133 = load i32, ptr %2, align 4, !tbaa !8
  %134 = icmp sgt i32 %133, 1
  br i1 %134, label %135, label %137, !prof !11

135:                                              ; preds = %132
  %136 = add nsw i32 %133, -1
  store i32 %136, ptr %2, align 4, !tbaa !8
  br label %lean_dec.exit35

137:                                              ; preds = %132
  %.not.i70 = icmp eq i32 %133, 0
  br i1 %.not.i70, label %lean_dec.exit35, label %138

138:                                              ; preds = %137
  tail call void @lean_dec_ref_cold(ptr noundef nonnull %2) #4
  br label %lean_dec.exit35

lean_dec.exit35:                                  ; preds = %138, %137, %135, %lean_dec.exit36
  %139 = ptrtoint ptr %1 to i64
  %140 = and i64 %139, 1
  %.not89 = icmp eq i64 %140, 0
  br i1 %.not89, label %141, label %lean_dec.exit34

141:                                              ; preds = %lean_dec.exit35
  %142 = load i32, ptr %1, align 4, !tbaa !8
  %143 = icmp sgt i32 %142, 1
  br i1 %143, label %144, label %146, !prof !11

144:                                              ; preds = %141
  %145 = add nsw i32 %142, -1
  store i32 %145, ptr %1, align 4, !tbaa !8
  br label %lean_dec.exit34

146:                                              ; preds = %141
  %.not.i72 = icmp eq i32 %142, 0
  br i1 %.not.i72, label %lean_dec.exit34, label %147

147:                                              ; preds = %146
  tail call void @lean_dec_ref_cold(ptr noundef nonnull %1) #4
  br label %lean_dec.exit34

lean_dec.exit34:                                  ; preds = %147, %146, %144, %lean_dec.exit35
  %148 = ptrtoint ptr %0 to i64
  %149 = and i64 %148, 1
  %.not90 = icmp eq i64 %149, 0
  br i1 %.not90, label %150, label %lean_dec.exit

150:                                              ; preds = %lean_dec.exit34
  %151 = load i32, ptr %0, align 4, !tbaa !8
  %152 = icmp sgt i32 %151, 1
  br i1 %152, label %153, label %155, !prof !11

153:                                              ; preds = %150
  %154 = add nsw i32 %151, -1
  store i32 %154, ptr %0, align 4, !tbaa !8
  br label %lean_dec.exit

155:                                              ; preds = %150
  %.not.i74 = icmp eq i32 %151, 0
  br i1 %.not.i74, label %lean_dec.exit, label %156

156:                                              ; preds = %155
  tail call void @lean_dec_ref_cold(ptr noundef nonnull %0) #4
  br label %lean_dec.exit

lean_dec.exit:                                    ; preds = %156, %155, %153, %lean_dec.exit34
  ret ptr %48
}